; ModuleID = '61/604.c'
source_filename = "61/604.c"
target datalayout = "e-m:e-p270:32:32-p271:32:32-p272:64:64-i64:64-f80:128-n8:16:32:64-S128"
target triple = "x86_64-pc-linux-gnu"

@.str = private unnamed_addr constant [3 x i8] c"%d\00", align 1
@.str.1 = private unnamed_addr constant [4 x i8] c"%d\0A\00", align 1

; Function Attrs: noinline nounwind uwtable
define dso_local i32 @main() #0 {
  %1 = alloca i32, align 4
  %2 = alloca i32, align 4
  %3 = alloca i32, align 4
  %4 = alloca i32, align 4
  %5 = alloca i32, align 4
  %6 = alloca i32, align 4
  %7 = alloca i32, align 4
  %8 = alloca i32, align 4
  %9 = alloca [100 x i32], align 16
  store i32 0, i32* %1, align 4
  %10 = call i32 (i8*, ...) @__isoc99_scanf(i8* getelementptr inbounds ([3 x i8], [3 x i8]* @.str, i64 0, i64 0), i32* %8)
  store i32 0, i32* %7, align 4
  br label %11

11:                                               ; preds = %47, %0
  %12 = load i32, i32* %7, align 4
  %13 = load i32, i32* %8, align 4
  %14 = icmp slt i32 %12, %13
  br i1 %14, label %15, label %50

15:                                               ; preds = %11
  %16 = call i32 (i8*, ...) @__isoc99_scanf(i8* getelementptr inbounds ([3 x i8], [3 x i8]* @.str, i64 0, i64 0), i32* %2)
  store i32 1, i32* %3, align 4
  store i32 1, i32* %4, align 4
  %17 = load i32, i32* %2, align 4
  %18 = icmp eq i32 %17, 1
  br i1 %18, label %22, label %19

19:                                               ; preds = %15
  %20 = load i32, i32* %2, align 4
  %21 = icmp eq i32 %20, 2
  br i1 %21, label %22, label %23

22:                                               ; preds = %19, %15
  store i32 1, i32* %5, align 4
  br label %42

23:                                               ; preds = %19
  %24 = load i32, i32* %2, align 4
  %25 = icmp sge i32 %24, 3
  br i1 %25, label %26, label %41

26:                                               ; preds = %23
  store i32 3, i32* %6, align 4
  br label %27

27:                                               ; preds = %37, %26
  %28 = load i32, i32* %6, align 4
  %29 = load i32, i32* %2, align 4
  %30 = icmp sle i32 %28, %29
  br i1 %30, label %31, label %40

31:                                               ; preds = %27
  %32 = load i32, i32* %3, align 4
  %33 = load i32, i32* %4, align 4
  %34 = add nsw i32 %32, %33
  store i32 %34, i32* %5, align 4
  %35 = load i32, i32* %4, align 4
  store i32 %35, i32* %3, align 4
  %36 = load i32, i32* %5, align 4
  store i32 %36, i32* %4, align 4
  br label %37

37:                                               ; preds = %31
  %38 = load i32, i32* %6, align 4
  %39 = add nsw i32 %38, 1
  store i32 %39, i32* %6, align 4
  br label %27

40:                                               ; preds = %27
  br label %41

41:                                               ; preds = %40, %23
  br label %42

42:                                               ; preds = %41, %22
  %43 = load i32, i32* %5, align 4
  %44 = load i32, i32* %7, align 4
  %45 = sext i32 %44 to i64
  %46 = getelementptr inbounds [100 x i32], [100 x i32]* %9, i64 0, i64 %45
  store i32 %43, i32* %46, align 4
  br label %47

47:                                               ; preds = %42
  %48 = load i32, i32* %7, align 4
  %49 = add nsw i32 %48, 1
  store i32 %49, i32* %7, align 4
  br label %11

50:                                               ; preds = %11
  store i32 0, i32* %7, align 4
  br label %51

51:                                               ; preds = %61, %50
  %52 = load i32, i32* %7, align 4
  %53 = load i32, i32* %8, align 4
  %54 = icmp slt i32 %52, %53
  br i1 %54, label %55, label %64

55:                                               ; preds = %51
  %56 = load i32, i32* %7, align 4
  %57 = sext i32 %56 to i64
  %58 = getelementptr inbounds [100 x i32], [100 x i32]* %9, i64 0, i64 %57
  %59 = load i32, i32* %58, align 4
  %60 = call i32 (i8*, ...) @printf(i8* getelementptr inbounds ([4 x i8], [4 x i8]* @.str.1, i64 0, i64 0), i32 %59)
  br label %61

61:                                               ; preds = %55
  %62 = load i32, i32* %7, align 4
  %63 = add nsw i32 %62, 1
  store i32 %63, i32* %7, align 4
  br label %51

64:                                               ; preds = %51
  ret i32 0
}

declare dso_local i32 @__isoc99_scanf(i8*, ...) #1

declare dso_local i32 @printf(i8*, ...) #1


!llvm.module.flags = !{!0}
!llvm.ident = !{!1}

!0 = !{i32 1, !"wchar_size", i32 4}
!1 = !{!"clang version 10.0.0-4ubuntu1 "}
